Certificate:
    Data:
        Version: 3 (0x2)
        Serial Number: 305419906 (0x12345682)
    Signature Algorithm: sha256WithRSAEncryption
        Issuer: CN=SRK4_sha256_2048_65537_v3_ca
        Validity
            Not Before: Jun 28 01:16:49 2016 GMT
            Not After : Jun 26 01:16:49 2026 GMT
        Subject: CN=CSF4_1_sha256_2048_65537_v3_usr
        Subject Public Key Info:
            Public Key Algorithm: rsaEncryption
                Public-Key: (2048 bit)
                Modulus:
                    00:ba:da:95:68:77:81:dd:0c:7f:f8:5a:66:0f:59:
                    0c:7b:98:af:75:8e:69:7f:d4:6b:f9:0b:9c:dc:ce:
                    d9:b8:be:c1:ec:26:b3:2e:70:b2:29:89:ab:4d:f7:
                    b9:ba:63:fd:c2:3d:a2:a9:95:33:00:8d:f8:cf:b0:
                    ea:15:6b:c8:2b:e2:5f:b6:63:c1:9b:7e:73:33:09:
                    6d:d4:9d:83:68:d9:fc:b5:8b:85:b3:0d:f5:b2:7d:
                    66:56:da:f4:94:c0:b2:c3:b3:85:66:9e:ae:0b:aa:
                    13:58:56:72:06:56:02:d7:a1:55:0e:42:7f:fd:67:
                    0f:9e:73:d0:4d:bc:6c:d5:91:53:67:1c:ef:31:03:
                    6b:bf:a1:4b:3f:32:5c:23:e6:ec:32:f3:1f:e0:4e:
                    52:d7:fc:9f:9e:db:80:a4:c7:b6:0f:ab:c5:04:bc:
                    3b:5d:88:e8:fe:62:09:a3:2e:02:39:47:cf:72:00:
                    0f:22:5c:00:62:6a:72:a6:6d:0e:6a:bc:2f:d6:19:
                    db:49:11:db:29:79:8d:44:b5:2b:a1:3c:05:be:3a:
                    b1:ed:e8:c4:3f:c1:35:88:75:f1:4d:4e:86:f4:a3:
                    db:7f:01:4b:d3:98:13:49:fa:0f:11:f9:af:37:4a:
                    a8:54:c7:60:ac:ab:52:19:ff:cb:01:fd:4b:01:2b:
                    a1:d3
                Exponent: 65537 (0x10001)
        X509v3 extensions:
            X509v3 Basic Constraints: 
                CA:FALSE
            Netscape Comment: 
                OpenSSL Generated Certificate
            X509v3 Subject Key Identifier: 
                D2:0C:5E:9E:3A:04:20:2E:AD:ED:73:26:6E:4B:A4:69:FD:3A:87:82
            X509v3 Authority Key Identifier: 
                keyid:12:AE:3B:1C:BF:D0:3E:A0:53:E8:B3:B2:44:E9:F7:5B:83:0C:49:BF

    Signature Algorithm: sha256WithRSAEncryption
         a8:f2:d6:b7:c8:f4:df:20:95:ba:50:d1:7f:65:0b:79:92:d3:
         6c:93:f2:ab:b1:03:ac:7e:a1:cb:af:11:72:5d:a1:e9:a7:81:
         ba:50:e3:b3:1a:42:7a:db:35:d4:b8:55:ff:50:91:7b:0f:82:
         84:f8:92:fd:98:bc:4f:ee:37:e4:10:69:df:7a:7f:8f:0f:c0:
         56:64:9b:76:d0:dc:03:f9:43:7e:89:b9:c8:38:2f:fd:f0:86:
         78:70:6a:04:ff:a9:b3:f4:4c:c5:52:d0:1e:d8:b7:cf:66:dd:
         7f:5f:90:6c:84:8a:22:62:98:64:7c:12:a3:2f:c8:ab:62:db:
         71:35:a0:31:e2:de:fa:c8:ba:4f:e6:f9:1b:e2:18:38:8f:be:
         44:b1:b9:0a:ae:e3:ef:45:03:49:a6:cc:eb:00:d2:6c:1b:c4:
         1a:6a:f7:e0:1f:bf:ec:04:85:53:05:de:53:44:94:c2:39:1b:
         10:43:a6:24:5d:47:48:e3:b7:c0:40:1e:90:42:70:49:10:74:
         a4:51:b8:a7:ae:e2:b0:8d:27:b7:bf:e4:fc:47:81:68:ac:a4:
         ec:ad:5e:f7:65:ef:ce:e7:09:d0:ec:56:a9:0c:1f:37:3b:42:
         d1:f6:f8:c4:1d:de:6f:9c:59:e3:eb:b7:46:ba:7c:c0:82:19:
         e1:3d:1e:06
-----BEGIN CERTIFICATE-----
MIIDSjCCAjKgAwIBAgIEEjRWgjANBgkqhkiG9w0BAQsFADAnMSUwIwYDVQQDDBxT
Uks0X3NoYTI1Nl8yMDQ4XzY1NTM3X3YzX2NhMB4XDTE2MDYyODAxMTY0OVoXDTI2
MDYyNjAxMTY0OVowKjEoMCYGA1UEAwwfQ1NGNF8xX3NoYTI1Nl8yMDQ4XzY1NTM3
X3YzX3VzcjCCASIwDQYJKoZIhvcNAQEBBQADggEPADCCAQoCggEBALralWh3gd0M
f/haZg9ZDHuYr3WOaX/Ua/kLnNzO2bi+wewmsy5wsimJq033ubpj/cI9oqmVMwCN
+M+w6hVryCviX7ZjwZt+czMJbdSdg2jZ/LWLhbMN9bJ9Zlba9JTAssOzhWaerguq
E1hWcgZWAtehVQ5Cf/1nD55z0E28bNWRU2cc7zEDa7+hSz8yXCPm7DLzH+BOUtf8
n57bgKTHtg+rxQS8O12I6P5iCaMuAjlHz3IADyJcAGJqcqZtDmq8L9YZ20kR2yl5
jUS1K6E8Bb46se3oxD/BNYh18U1OhvSj238BS9OYE0n6DxH5rzdKqFTHYKyrUhn/
ywH9SwErodMCAwEAAaN7MHkwCQYDVR0TBAIwADAsBglghkgBhvhCAQ0EHxYdT3Bl
blNTTCBHZW5lcmF0ZWQgQ2VydGlmaWNhdGUwHQYDVR0OBBYEFNIMXp46BCAure1z
Jm5LpGn9OoeCMB8GA1UdIwQYMBaAFBKuOxy/0D6gU+izskTp91uDDEm/MA0GCSqG
SIb3DQEBCwUAA4IBAQCo8ta3yPTfIJW6UNF/ZQt5ktNsk/KrsQOsfqHLrxFyXaHp
p4G6UOOzGkJ62zXUuFX/UJF7D4KE+JL9mLxP7jfkEGnfen+PD8BWZJt20NwD+UN+
ibnIOC/98IZ4cGoE/6mz9EzFUtAe2LfPZt1/X5BshIoiYphkfBKjL8irYttxNaAx
4t76yLpP5vkb4hg4j75EsbkKruPvRQNJpszrANJsG8QaavfgH7/sBIVTBd5TRJTC
ORsQQ6YkXUdI47fAQB6QQnBJEHSkUbinruKwjSe3v+T8R4ForKTsrV73Ze/O5wnQ
7FapDB83O0LR9vjEHd5vnFnj67dGunzAghnhPR4G
-----END CERTIFICATE-----
