Certificate:
    Data:
        Version: 3 (0x2)
        Serial Number: 305419902 (0x1234567e)
    Signature Algorithm: sha256WithRSAEncryption
        Issuer: CN=CA1_sha256_2048_65537_v3_ca
        Validity
            Not Before: Jun 28 01:16:44 2016 GMT
            Not After : Jun 26 01:16:44 2026 GMT
        Subject: CN=SRK3_sha256_2048_65537_v3_ca
        Subject Public Key Info:
            Public Key Algorithm: rsaEncryption
                Public-Key: (2048 bit)
                Modulus:
                    00:a5:3a:e9:55:8d:67:21:d5:d4:72:0e:6a:c7:1e:
                    d8:da:fa:e2:06:dc:34:f6:b2:4c:33:43:49:28:f8:
                    7a:b7:ed:fd:25:fe:5c:7d:a1:d2:ca:7f:c3:ad:96:
                    d3:a1:ef:f6:ff:11:12:0e:e4:2b:a0:ce:8f:e5:f0:
                    0d:f9:9f:bb:23:90:6f:45:f1:6f:0b:ef:3a:e1:b6:
                    19:7e:7d:ff:61:97:21:10:dc:3c:5e:84:7a:df:17:
                    cb:59:12:5c:3d:80:79:89:08:77:46:39:79:25:ab:
                    4e:be:2a:d4:6e:d8:02:95:15:7b:c4:42:6e:5b:2b:
                    1e:19:c5:a8:cc:bc:86:9e:3a:6d:7d:64:1a:ef:1a:
                    09:ed:13:22:8f:db:e8:75:ed:64:83:96:53:e5:c1:
                    c6:76:d0:32:68:b0:0e:a0:27:aa:ab:24:83:a2:82:
                    a7:d1:d2:cb:4a:56:fd:28:86:be:b1:4a:61:f6:5a:
                    84:05:9f:04:9c:bb:0d:af:52:3a:54:e5:c8:63:e1:
                    94:fa:33:04:5f:06:a6:19:e4:e1:82:9a:1d:2c:78:
                    59:bd:3f:f5:53:da:83:5e:c7:4d:82:82:35:53:bc:
                    f4:f0:39:e0:1b:b3:42:92:c8:a3:04:23:51:36:74:
                    85:f8:96:36:85:92:f0:02:f2:58:22:e6:b8:28:06:
                    25:b5
                Exponent: 65537 (0x10001)
        X509v3 extensions:
            X509v3 Subject Key Identifier: 
                D1:51:CA:E6:A2:1F:ED:B7:A7:67:6F:C5:4C:45:1E:8C:88:21:70:2B
            X509v3 Authority Key Identifier: 
                keyid:91:CC:DA:2E:D4:05:04:CB:C4:44:58:E3:70:41:08:D6:35:12:DD:07
                DirName:/CN=CA1_sha256_2048_65537_v3_ca
                serial:98:E6:CB:B5:40:55:C2:1C

            X509v3 Basic Constraints: critical
                CA:TRUE
            X509v3 Key Usage: 
                Certificate Sign
    Signature Algorithm: sha256WithRSAEncryption
         53:29:a7:a4:13:b0:69:1e:4a:99:7b:23:02:16:ad:73:d3:9d:
         6a:77:2b:22:46:1f:84:4e:93:d9:27:8a:19:c2:0b:84:87:c9:
         2f:76:48:d7:71:f7:67:b9:7f:85:7a:63:16:65:8d:14:4c:17:
         eb:aa:58:47:8f:99:29:3c:fe:ea:d2:be:41:c0:27:e6:2d:d4:
         7c:f4:69:6d:41:23:10:26:7b:38:de:0b:82:ba:5a:63:ac:c9:
         3c:73:5e:84:8b:b4:6b:bf:b0:c9:60:85:b3:19:f3:a4:3f:ab:
         31:d9:66:3c:90:f0:31:3b:16:e7:d1:5c:d2:d6:46:3c:92:1c:
         69:f0:7a:f9:3c:9a:e8:5b:dc:5e:bd:26:ae:dc:b5:cc:3c:8c:
         d4:c7:3d:d7:73:5e:80:d8:ee:f2:03:8e:99:36:2c:d6:10:23:
         2a:77:d2:fc:f5:23:97:39:47:a6:aa:fc:a5:e5:51:77:46:06:
         d5:e1:60:82:f6:db:9a:3d:44:e3:85:3f:3a:b2:54:d3:65:4d:
         98:79:9b:36:97:cd:8e:c6:78:d4:11:5f:fe:49:5d:86:69:83:
         56:c8:82:8b:c4:81:92:9d:2a:da:23:2d:2f:34:f5:77:77:ca:
         2c:08:5b:dc:57:55:25:b7:03:af:c6:d4:a8:de:02:1f:bd:cc:
         e4:9d:e1:81
-----BEGIN CERTIFICATE-----
MIIDZDCCAkygAwIBAgIEEjRWfjANBgkqhkiG9w0BAQsFADAmMSQwIgYDVQQDFBtD
QTFfc2hhMjU2XzIwNDhfNjU1MzdfdjNfY2EwHhcNMTYwNjI4MDExNjQ0WhcNMjYw
NjI2MDExNjQ0WjAnMSUwIwYDVQQDDBxTUkszX3NoYTI1Nl8yMDQ4XzY1NTM3X3Yz
X2NhMIIBIjANBgkqhkiG9w0BAQEFAAOCAQ8AMIIBCgKCAQEApTrpVY1nIdXUcg5q
xx7Y2vriBtw09rJMM0NJKPh6t+39Jf5cfaHSyn/DrZbToe/2/xESDuQroM6P5fAN
+Z+7I5BvRfFvC+864bYZfn3/YZchENw8XoR63xfLWRJcPYB5iQh3Rjl5JatOvirU
btgClRV7xEJuWyseGcWozLyGnjptfWQa7xoJ7RMij9vode1kg5ZT5cHGdtAyaLAO
oCeqqySDooKn0dLLSlb9KIa+sUph9lqEBZ8EnLsNr1I6VOXIY+GU+jMEXwamGeTh
gpodLHhZvT/1U9qDXsdNgoI1U7z08DngG7NCksijBCNRNnSF+JY2hZLwAvJYIua4
KAYltQIDAQABo4GYMIGVMB0GA1UdDgQWBBTRUcrmoh/tt6dnb8VMRR6MiCFwKzBW
BgNVHSMETzBNgBSRzNou1AUEy8REWONwQQjWNRLdB6EqpCgwJjEkMCIGA1UEAxQb
Q0ExX3NoYTI1Nl8yMDQ4XzY1NTM3X3YzX2NhggkAmObLtUBVwhwwDwYDVR0TAQH/
BAUwAwEB/zALBgNVHQ8EBAMCAgQwDQYJKoZIhvcNAQELBQADggEBAFMpp6QTsGke
Spl7IwIWrXPTnWp3KyJGH4ROk9knihnCC4SHyS92SNdx92e5f4V6YxZljRRMF+uq
WEePmSk8/urSvkHAJ+Yt1Hz0aW1BIxAmezjeC4K6WmOsyTxzXoSLtGu/sMlghbMZ
86Q/qzHZZjyQ8DE7FufRXNLWRjySHGnwevk8muhb3F69Jq7ctcw8jNTHPddzXoDY
7vIDjpk2LNYQIyp30vz1I5c5R6aq/KXlUXdGBtXhYIL225o9ROOFPzqyVNNlTZh5
mzaXzY7GeNQRX/5JXYZpg1bIgovEgZKdKtojLS809Xd3yiwIW9xXVSW3A6/G1Kje
Ah+9zOSd4YE=
-----END CERTIFICATE-----
