Certificate:
    Data:
        Version: 3 (0x2)
        Serial Number: 305419905 (0x12345681)
    Signature Algorithm: sha256WithRSAEncryption
        Issuer: CN=CA1_sha256_2048_65537_v3_ca
        Validity
            Not Before: Jun 28 01:16:48 2016 GMT
            Not After : Jun 26 01:16:48 2026 GMT
        Subject: CN=SRK4_sha256_2048_65537_v3_ca
        Subject Public Key Info:
            Public Key Algorithm: rsaEncryption
                Public-Key: (2048 bit)
                Modulus:
                    00:e8:1c:72:3f:94:1d:23:71:3e:f2:00:1a:9e:7a:
                    a8:3a:8b:5d:2c:98:35:d0:dc:e5:6a:cf:90:9c:1e:
                    68:45:9f:2d:29:90:49:37:20:f1:b2:04:ef:1b:e4:
                    b9:64:70:1b:81:f8:30:cb:d9:ae:f1:46:9d:40:94:
                    56:dd:53:0c:f2:87:2d:6c:f2:13:80:98:06:2c:e3:
                    07:08:2a:50:2d:7a:eb:c0:30:e6:49:dc:68:0d:86:
                    55:fd:4a:3b:45:3e:df:f5:0b:0b:6a:4c:1b:50:3b:
                    04:ae:7a:60:0a:88:10:c7:5b:b9:89:59:28:7f:6f:
                    8a:bb:00:e8:30:60:69:ba:0c:b7:fe:47:bd:ba:86:
                    0a:17:11:ae:5a:a3:63:9d:b3:df:f7:17:a8:53:ec:
                    ac:b2:0f:c9:b7:ef:07:30:ba:61:49:66:62:de:ed:
                    ad:6d:4a:29:7f:52:2b:db:6e:4e:cb:97:c7:bf:99:
                    93:34:21:84:b7:48:bd:2b:76:17:0a:2d:a6:96:9b:
                    b5:a8:ae:23:02:ae:10:54:04:2f:63:32:84:d8:62:
                    ac:be:e7:bf:8b:f9:62:e7:cd:b3:36:29:3b:08:56:
                    58:4f:9b:64:71:41:a6:ee:5c:21:e5:43:09:bd:44:
                    d3:a6:85:c5:8b:aa:fa:bf:5b:8e:b4:1a:e3:53:a2:
                    c1:95
                Exponent: 65537 (0x10001)
        X509v3 extensions:
            X509v3 Subject Key Identifier: 
                12:AE:3B:1C:BF:D0:3E:A0:53:E8:B3:B2:44:E9:F7:5B:83:0C:49:BF
            X509v3 Authority Key Identifier: 
                keyid:91:CC:DA:2E:D4:05:04:CB:C4:44:58:E3:70:41:08:D6:35:12:DD:07
                DirName:/CN=CA1_sha256_2048_65537_v3_ca
                serial:98:E6:CB:B5:40:55:C2:1C

            X509v3 Basic Constraints: critical
                CA:TRUE
            X509v3 Key Usage: 
                Certificate Sign
    Signature Algorithm: sha256WithRSAEncryption
         43:13:e4:7e:39:9d:c6:f4:53:33:0d:cc:45:2b:26:19:13:a3:
         43:83:d2:54:15:f9:92:07:12:74:b6:36:35:85:c6:d0:3b:7e:
         57:a3:c0:10:a2:e3:85:11:8e:82:38:e0:6f:56:b2:94:66:19:
         d5:93:e9:32:13:0f:7d:27:43:03:76:03:61:6e:29:2a:50:09:
         41:3d:c8:8b:88:04:99:ae:a3:cb:2b:e3:10:45:43:ea:60:85:
         20:ae:4c:59:14:d4:ad:23:7c:b9:67:06:ef:e5:d5:aa:9b:b1:
         5d:91:a1:1b:54:c1:e8:3f:b6:76:28:3a:82:34:b6:77:8d:34:
         13:b4:6f:b2:b7:dd:56:c6:e0:12:0c:6c:69:a5:4c:05:e1:83:
         61:45:2a:f6:74:12:49:a1:28:71:cd:f6:3c:3c:6c:a7:ad:96:
         10:3a:83:b7:99:9f:28:0e:9d:f0:d5:e2:af:3f:76:ea:b6:ab:
         ed:c6:b5:72:1f:fe:77:a6:55:c7:c5:8a:2f:18:ea:d1:06:a0:
         29:47:4a:96:a2:cb:f3:5b:f2:d8:10:d6:1f:63:dd:cd:20:98:
         5c:ea:1b:02:98:6c:00:8d:2e:22:5e:6c:2d:60:17:ca:84:10:
         3e:46:a4:bf:fe:2e:6b:16:3e:19:51:b0:74:78:29:74:ed:09:
         5f:dd:02:c1
-----BEGIN CERTIFICATE-----
MIIDZDCCAkygAwIBAgIEEjRWgTANBgkqhkiG9w0BAQsFADAmMSQwIgYDVQQDFBtD
QTFfc2hhMjU2XzIwNDhfNjU1MzdfdjNfY2EwHhcNMTYwNjI4MDExNjQ4WhcNMjYw
NjI2MDExNjQ4WjAnMSUwIwYDVQQDDBxTUks0X3NoYTI1Nl8yMDQ4XzY1NTM3X3Yz
X2NhMIIBIjANBgkqhkiG9w0BAQEFAAOCAQ8AMIIBCgKCAQEA6BxyP5QdI3E+8gAa
nnqoOotdLJg10Nzlas+QnB5oRZ8tKZBJNyDxsgTvG+S5ZHAbgfgwy9mu8UadQJRW
3VMM8octbPITgJgGLOMHCCpQLXrrwDDmSdxoDYZV/Uo7RT7f9QsLakwbUDsErnpg
CogQx1u5iVkof2+KuwDoMGBpugy3/ke9uoYKFxGuWqNjnbPf9xeoU+yssg/Jt+8H
MLphSWZi3u2tbUopf1Ir225Oy5fHv5mTNCGEt0i9K3YXCi2mlpu1qK4jAq4QVAQv
YzKE2GKsvue/i/li582zNik7CFZYT5tkcUGm7lwh5UMJvUTTpoXFi6r6v1uOtBrj
U6LBlQIDAQABo4GYMIGVMB0GA1UdDgQWBBQSrjscv9A+oFPos7JE6fdbgwxJvzBW
BgNVHSMETzBNgBSRzNou1AUEy8REWONwQQjWNRLdB6EqpCgwJjEkMCIGA1UEAxQb
Q0ExX3NoYTI1Nl8yMDQ4XzY1NTM3X3YzX2NhggkAmObLtUBVwhwwDwYDVR0TAQH/
BAUwAwEB/zALBgNVHQ8EBAMCAgQwDQYJKoZIhvcNAQELBQADggEBAEMT5H45ncb0
UzMNzEUrJhkTo0OD0lQV+ZIHEnS2NjWFxtA7flejwBCi44URjoI44G9WspRmGdWT
6TITD30nQwN2A2FuKSpQCUE9yIuIBJmuo8sr4xBFQ+pghSCuTFkU1K0jfLlnBu/l
1aqbsV2RoRtUweg/tnYoOoI0tneNNBO0b7K33VbG4BIMbGmlTAXhg2FFKvZ0Ekmh
KHHN9jw8bKetlhA6g7eZnygOnfDV4q8/duq2q+3GtXIf/nemVcfFii8Y6tEGoClH
Spaiy/Nb8tgQ1h9j3c0gmFzqGwKYbACNLiJebC1gF8qEED5GpL/+LmsWPhlRsHR4
KXTtCV/dAsE=
-----END CERTIFICATE-----
