Certificate:
    Data:
        Version: 3 (0x2)
        Serial Number: 305419899 (0x1234567b)
    Signature Algorithm: sha256WithRSAEncryption
        Issuer: CN=CA1_sha256_2048_65537_v3_ca
        Validity
            Not Before: Jun 28 01:16:40 2016 GMT
            Not After : Jun 26 01:16:40 2026 GMT
        Subject: CN=SRK2_sha256_2048_65537_v3_ca
        Subject Public Key Info:
            Public Key Algorithm: rsaEncryption
                Public-Key: (2048 bit)
                Modulus:
                    00:b8:a8:82:b8:6e:85:31:21:92:1c:a8:7f:7e:05:
                    d1:6d:ab:82:eb:be:fb:a2:55:58:fe:ae:c0:a9:38:
                    aa:89:7a:d8:b8:c9:ed:ce:7c:c7:18:95:ac:59:20:
                    23:39:c9:e6:5b:86:b9:fa:a7:57:19:35:2b:36:34:
                    92:f8:a4:a7:46:dd:0e:16:c6:d7:c5:61:9f:1c:3d:
                    d4:4c:e0:05:09:b6:0f:81:69:41:8c:ff:86:41:84:
                    c5:64:27:b4:c8:78:31:35:2e:77:7c:25:57:e0:06:
                    19:de:59:9e:0c:94:2a:e3:7a:64:dc:8b:9c:d3:48:
                    f5:c9:1e:60:06:0d:b7:21:37:9a:26:68:9f:8c:8e:
                    6f:e3:1e:51:e4:b8:c5:8a:36:c1:30:74:ba:1a:97:
                    23:ee:46:ab:70:07:fb:70:9a:ba:91:17:f1:68:28:
                    07:47:0d:af:39:ff:69:c2:8e:20:25:19:fa:70:ca:
                    99:12:7e:9b:ed:a0:6f:99:eb:45:ff:f8:f1:7a:59:
                    d3:9b:97:6c:26:98:54:b6:3d:ba:22:e6:c0:d2:f6:
                    50:d2:7d:b7:87:2c:52:db:1a:46:da:6a:fb:6f:a7:
                    6d:34:6e:40:6a:9e:ca:9b:a4:d7:80:d5:f9:33:aa:
                    a1:31:57:c2:1d:f5:21:73:3d:b3:de:82:fa:7b:fb:
                    f8:27
                Exponent: 65537 (0x10001)
        X509v3 extensions:
            X509v3 Subject Key Identifier: 
                E6:69:53:AF:12:5C:AC:5F:3D:6B:2E:8A:6A:B1:6D:1C:61:EF:29:FD
            X509v3 Authority Key Identifier: 
                keyid:91:CC:DA:2E:D4:05:04:CB:C4:44:58:E3:70:41:08:D6:35:12:DD:07
                DirName:/CN=CA1_sha256_2048_65537_v3_ca
                serial:98:E6:CB:B5:40:55:C2:1C

            X509v3 Basic Constraints: critical
                CA:TRUE
            X509v3 Key Usage: 
                Certificate Sign
    Signature Algorithm: sha256WithRSAEncryption
         5d:b7:d5:e2:c2:69:5b:fb:d6:77:eb:c8:89:7a:a3:54:b6:4c:
         97:0e:b4:b1:39:94:c0:07:8a:b8:56:1f:c7:3f:5c:e7:51:6a:
         51:4f:3a:99:51:3e:01:51:5f:07:94:da:3b:5d:bb:5d:1a:1f:
         28:ea:5e:e6:64:6c:fe:dc:06:6f:26:17:10:e5:ff:70:fe:34:
         d2:71:f1:86:b2:05:54:95:46:aa:43:2f:7b:b3:12:9f:d9:3d:
         ca:1d:6b:72:88:86:5d:15:64:ad:ff:70:d6:48:b8:38:2d:29:
         f8:ad:bd:7a:ea:b1:79:2e:38:5c:84:d6:60:0f:3c:86:f5:03:
         55:ee:5a:23:07:84:8d:75:54:08:35:85:7b:54:4c:d4:d0:8d:
         20:17:28:40:04:6e:2e:16:7e:f8:e1:c1:d0:c4:09:ea:53:9b:
         32:1a:bd:43:13:19:42:dc:f2:58:e9:ca:4f:ed:f0:f9:5f:7c:
         b3:2d:ef:5a:46:66:ea:e5:2b:86:65:b4:42:09:49:ec:a2:a5:
         ca:5e:16:65:ef:27:57:ed:d9:d5:9d:9d:ed:87:e4:7b:75:2d:
         24:19:c6:20:a9:38:3d:ba:05:f5:51:26:3a:2e:ac:cd:60:d6:
         5a:ed:31:6d:62:43:cd:fb:d9:cd:97:27:76:0c:f2:eb:9b:28:
         ec:70:2a:44
-----BEGIN CERTIFICATE-----
MIIDZDCCAkygAwIBAgIEEjRWezANBgkqhkiG9w0BAQsFADAmMSQwIgYDVQQDFBtD
QTFfc2hhMjU2XzIwNDhfNjU1MzdfdjNfY2EwHhcNMTYwNjI4MDExNjQwWhcNMjYw
NjI2MDExNjQwWjAnMSUwIwYDVQQDDBxTUksyX3NoYTI1Nl8yMDQ4XzY1NTM3X3Yz
X2NhMIIBIjANBgkqhkiG9w0BAQEFAAOCAQ8AMIIBCgKCAQEAuKiCuG6FMSGSHKh/
fgXRbauC6777olVY/q7AqTiqiXrYuMntznzHGJWsWSAjOcnmW4a5+qdXGTUrNjSS
+KSnRt0OFsbXxWGfHD3UTOAFCbYPgWlBjP+GQYTFZCe0yHgxNS53fCVX4AYZ3lme
DJQq43pk3Iuc00j1yR5gBg23ITeaJmifjI5v4x5R5LjFijbBMHS6Gpcj7karcAf7
cJq6kRfxaCgHRw2vOf9pwo4gJRn6cMqZEn6b7aBvmetF//jxelnTm5dsJphUtj26
IubA0vZQ0n23hyxS2xpG2mr7b6dtNG5Aap7Km6TXgNX5M6qhMVfCHfUhcz2z3oL6
e/v4JwIDAQABo4GYMIGVMB0GA1UdDgQWBBTmaVOvElysXz1rLopqsW0cYe8p/TBW
BgNVHSMETzBNgBSRzNou1AUEy8REWONwQQjWNRLdB6EqpCgwJjEkMCIGA1UEAxQb
Q0ExX3NoYTI1Nl8yMDQ4XzY1NTM3X3YzX2NhggkAmObLtUBVwhwwDwYDVR0TAQH/
BAUwAwEB/zALBgNVHQ8EBAMCAgQwDQYJKoZIhvcNAQELBQADggEBAF231eLCaVv7
1nfryIl6o1S2TJcOtLE5lMAHirhWH8c/XOdRalFPOplRPgFRXweU2jtdu10aHyjq
XuZkbP7cBm8mFxDl/3D+NNJx8YayBVSVRqpDL3uzEp/ZPcoda3KIhl0VZK3/cNZI
uDgtKfitvXrqsXkuOFyE1mAPPIb1A1XuWiMHhI11VAg1hXtUTNTQjSAXKEAEbi4W
fvjhwdDECepTmzIavUMTGULc8ljpyk/t8PlffLMt71pGZurlK4ZltEIJSeyipcpe
FmXvJ1ft2dWdne2H5Ht1LSQZxiCpOD26BfVRJjourM1g1lrtMW1iQ8372c2XJ3YM
8uubKOxwKkQ=
-----END CERTIFICATE-----
