Certificate:
    Data:
        Version: 3 (0x2)
        Serial Number: 305419907 (0x12345683)
    Signature Algorithm: sha256WithRSAEncryption
        Issuer: CN=SRK4_sha256_2048_65537_v3_ca
        Validity
            Not Before: Jun 28 01:16:50 2016 GMT
            Not After : Jun 26 01:16:50 2026 GMT
        Subject: CN=IMG4_1_sha256_2048_65537_v3_usr
        Subject Public Key Info:
            Public Key Algorithm: rsaEncryption
                Public-Key: (2048 bit)
                Modulus:
                    00:a8:4c:fa:95:c7:44:24:b6:80:86:0f:49:69:85:
                    22:17:51:89:65:63:16:ba:33:de:71:c2:88:fd:e2:
                    9e:4a:31:80:78:de:0c:ff:d2:16:f1:4b:17:07:8a:
                    52:95:4f:60:22:4c:46:2c:29:6c:6b:48:f7:81:93:
                    f1:46:39:9a:80:be:32:86:55:e1:ad:05:e7:a1:88:
                    27:7a:6b:ba:85:10:db:f4:11:55:05:5f:70:39:82:
                    22:91:d6:f5:1c:ce:be:f9:ba:58:75:f6:6b:60:f7:
                    e6:aa:54:ca:5f:94:31:2f:6d:bc:6a:4e:bc:f0:57:
                    1d:dc:f1:0e:ea:b8:ca:ec:75:77:4f:2e:cf:f7:97:
                    01:8d:2c:25:70:0a:70:e1:23:b4:95:2f:1f:fe:83:
                    1b:7d:1f:86:66:bd:bc:19:73:6e:c7:80:ff:4f:00:
                    33:79:8c:ac:8c:8d:9b:86:62:f1:0c:50:b3:90:c5:
                    72:d4:7e:b1:25:3a:8e:1a:7e:78:e5:e9:98:5a:ab:
                    8d:91:b7:83:27:67:f0:86:62:06:f8:f2:3d:0c:42:
                    7f:22:13:6c:74:03:dc:e5:c7:71:e4:ba:d2:7e:d4:
                    2a:26:e1:6d:6a:07:dc:df:89:e0:cb:94:eb:ab:e6:
                    56:18:b3:7a:bf:aa:bb:ce:e0:e6:9a:90:c0:93:21:
                    fe:6f
                Exponent: 65537 (0x10001)
        X509v3 extensions:
            X509v3 Basic Constraints: 
                CA:FALSE
            Netscape Comment: 
                OpenSSL Generated Certificate
            X509v3 Subject Key Identifier: 
                AC:B7:18:96:DC:53:57:F7:51:84:B7:DC:8B:C2:3C:2E:2D:24:C9:0F
            X509v3 Authority Key Identifier: 
                keyid:12:AE:3B:1C:BF:D0:3E:A0:53:E8:B3:B2:44:E9:F7:5B:83:0C:49:BF

    Signature Algorithm: sha256WithRSAEncryption
         c7:14:63:97:d7:32:9b:10:ee:51:de:29:8b:58:5f:4b:8a:0b:
         43:a1:be:d4:1e:e3:e9:c4:eb:d3:79:57:ba:e6:78:96:b7:13:
         b5:c7:7b:db:e6:e7:ab:35:b0:22:2d:49:57:02:7b:f6:2b:75:
         af:c0:06:d0:1a:1f:a7:2a:90:ad:d7:09:e2:4e:81:ed:6c:d7:
         cd:bb:3e:16:10:e2:2e:a2:20:7a:32:c2:b2:2d:2e:64:37:a9:
         89:ba:b3:64:11:60:d1:79:b7:95:89:cc:a5:4d:2c:a5:5c:99:
         cf:fc:e7:bc:42:20:7c:dc:4a:e3:ce:7e:09:c2:91:86:c6:d0:
         a2:c2:c2:52:7e:e5:f9:6a:5e:bd:1e:b4:b6:82:31:aa:19:83:
         f8:2f:c8:7b:81:db:2d:d4:38:12:18:8a:d4:c5:5f:fd:28:e9:
         09:ab:ac:47:1d:b3:5d:1e:19:12:68:93:80:91:46:88:8b:d8:
         b3:35:ab:79:d6:6f:6d:6b:01:1d:48:c1:e1:c5:ab:d1:88:39:
         e2:5b:0b:1f:f5:72:c1:fa:b1:39:da:dd:e8:92:ae:19:b2:cc:
         1b:d1:58:e0:95:09:3c:a5:64:29:b4:36:13:9c:89:ea:0c:22:
         a8:ee:bb:38:d4:fd:60:cf:a4:e0:cd:76:0c:6c:02:4c:dd:6e:
         ae:79:31:71
-----BEGIN CERTIFICATE-----
MIIDSjCCAjKgAwIBAgIEEjRWgzANBgkqhkiG9w0BAQsFADAnMSUwIwYDVQQDDBxT
Uks0X3NoYTI1Nl8yMDQ4XzY1NTM3X3YzX2NhMB4XDTE2MDYyODAxMTY1MFoXDTI2
MDYyNjAxMTY1MFowKjEoMCYGA1UEAwwfSU1HNF8xX3NoYTI1Nl8yMDQ4XzY1NTM3
X3YzX3VzcjCCASIwDQYJKoZIhvcNAQEBBQADggEPADCCAQoCggEBAKhM+pXHRCS2
gIYPSWmFIhdRiWVjFroz3nHCiP3inkoxgHjeDP/SFvFLFweKUpVPYCJMRiwpbGtI
94GT8UY5moC+MoZV4a0F56GIJ3pruoUQ2/QRVQVfcDmCIpHW9RzOvvm6WHX2a2D3
5qpUyl+UMS9tvGpOvPBXHdzxDuq4yux1d08uz/eXAY0sJXAKcOEjtJUvH/6DG30f
hma9vBlzbseA/08AM3mMrIyNm4Zi8QxQs5DFctR+sSU6jhp+eOXpmFqrjZG3gydn
8IZiBvjyPQxCfyITbHQD3OXHceS60n7UKibhbWoH3N+J4MuU66vmVhizer+qu87g
5pqQwJMh/m8CAwEAAaN7MHkwCQYDVR0TBAIwADAsBglghkgBhvhCAQ0EHxYdT3Bl
blNTTCBHZW5lcmF0ZWQgQ2VydGlmaWNhdGUwHQYDVR0OBBYEFKy3GJbcU1f3UYS3
3IvCPC4tJMkPMB8GA1UdIwQYMBaAFBKuOxy/0D6gU+izskTp91uDDEm/MA0GCSqG
SIb3DQEBCwUAA4IBAQDHFGOX1zKbEO5R3imLWF9LigtDob7UHuPpxOvTeVe65niW
txO1x3vb5uerNbAiLUlXAnv2K3WvwAbQGh+nKpCt1wniToHtbNfNuz4WEOIuoiB6
MsKyLS5kN6mJurNkEWDRebeVicylTSylXJnP/Oe8QiB83Erjzn4JwpGGxtCiwsJS
fuX5al69HrS2gjGqGYP4L8h7gdst1DgSGIrUxV/9KOkJq6xHHbNdHhkSaJOAkUaI
i9izNat51m9tawEdSMHhxavRiDniWwsf9XLB+rE52t3okq4Zsswb0VjglQk8pWQp
tDYTnInqDCKo7rs41P1gz6TgzXYMbAJM3W6ueTFx
-----END CERTIFICATE-----
