Certificate:
    Data:
        Version: 3 (0x2)
        Serial Number: 305419901 (0x1234567d)
    Signature Algorithm: sha256WithRSAEncryption
        Issuer: CN=SRK2_sha256_2048_65537_v3_ca
        Validity
            Not Before: Jun 28 01:16:43 2016 GMT
            Not After : Jun 26 01:16:43 2026 GMT
        Subject: CN=IMG2_1_sha256_2048_65537_v3_usr
        Subject Public Key Info:
            Public Key Algorithm: rsaEncryption
                Public-Key: (2048 bit)
                Modulus:
                    00:d3:8f:b7:80:00:c8:b0:8c:2e:fc:bf:97:60:64:
                    50:0a:3e:3b:11:7c:32:93:5e:c9:b8:61:83:64:66:
                    3b:72:ab:99:73:ab:30:19:8f:cb:88:1b:40:9f:ad:
                    1b:23:f5:c9:d8:70:c3:bd:8b:a5:b2:ed:2b:8d:2b:
                    96:58:dd:74:70:72:e3:46:63:dc:73:91:99:eb:99:
                    17:fb:b3:ff:04:9a:63:16:d1:f9:f6:27:1e:56:27:
                    23:81:ef:47:06:e3:cc:12:89:60:c8:54:a9:23:7f:
                    31:cc:dd:d2:a9:0d:ec:a9:69:8f:3d:66:74:b1:e6:
                    15:2d:d4:56:09:cc:bf:23:3e:fd:34:70:17:24:c6:
                    d0:58:42:4b:7b:2a:6c:54:e3:3a:f5:61:1d:e2:8b:
                    a7:bc:52:b7:db:47:ad:e9:de:90:53:fa:19:7d:c0:
                    43:00:b2:bf:e3:4c:db:be:c1:04:4c:a0:0e:31:f2:
                    23:9f:fe:43:b3:97:35:16:4c:75:42:76:2a:28:05:
                    df:91:31:17:e7:93:f0:cd:bb:07:b9:09:ad:e1:13:
                    7f:a3:54:45:6a:b5:8f:84:f3:98:ba:52:c6:18:32:
                    62:d3:05:b6:00:0b:a4:4f:c0:1c:2c:15:43:e1:77:
                    c0:81:6f:a2:81:41:e4:b6:e2:cd:79:b7:69:ce:b1:
                    e6:35
                Exponent: 65537 (0x10001)
        X509v3 extensions:
            X509v3 Basic Constraints: 
                CA:FALSE
            Netscape Comment: 
                OpenSSL Generated Certificate
            X509v3 Subject Key Identifier: 
                B8:47:E0:80:0F:0D:B9:17:54:71:94:65:E5:00:86:16:DB:88:C8:48
            X509v3 Authority Key Identifier: 
                keyid:E6:69:53:AF:12:5C:AC:5F:3D:6B:2E:8A:6A:B1:6D:1C:61:EF:29:FD

    Signature Algorithm: sha256WithRSAEncryption
         45:e5:ce:bf:db:89:04:bc:5a:d2:1b:e0:02:fb:40:8b:28:e4:
         dd:03:d5:f9:3f:84:3d:27:d2:f9:16:95:6e:80:69:82:67:d9:
         6a:fb:e4:f1:a7:ff:68:da:36:d9:f4:d2:7a:e6:be:f3:17:81:
         03:6d:65:60:e5:d0:59:b0:c0:7e:a0:be:4f:c2:ee:81:45:12:
         fe:e3:19:3c:54:81:6c:b2:a2:b5:44:3e:73:e4:0b:0c:f9:42:
         b3:21:fb:fc:4f:e9:fa:59:e1:2a:86:7e:b0:b3:7d:7f:3d:51:
         9e:b6:94:63:58:2c:c9:78:49:08:5b:fd:db:21:95:32:52:9e:
         ad:e6:63:00:52:f6:bf:b0:a9:3e:cd:dd:a6:09:ab:fc:26:59:
         b1:a1:02:1a:d6:ff:7e:ac:a6:53:ec:fc:e7:69:c8:93:a9:b1:
         8b:76:6e:67:2e:7b:18:35:c9:89:ae:1e:a9:b7:83:70:a9:fc:
         07:36:21:53:4a:fa:4f:51:69:c0:71:20:49:52:86:d6:b8:8c:
         1f:a1:27:6d:2d:3b:b3:02:85:f6:aa:71:ca:64:8c:e9:af:c4:
         2d:24:39:fa:5f:00:6f:c2:f9:80:8b:ba:1d:c6:2a:ab:a9:2d:
         b0:0e:34:cd:58:eb:71:d5:3d:c5:a4:a9:cb:9d:12:9a:0e:42:
         33:3b:06:38
-----BEGIN CERTIFICATE-----
MIIDSjCCAjKgAwIBAgIEEjRWfTANBgkqhkiG9w0BAQsFADAnMSUwIwYDVQQDDBxT
UksyX3NoYTI1Nl8yMDQ4XzY1NTM3X3YzX2NhMB4XDTE2MDYyODAxMTY0M1oXDTI2
MDYyNjAxMTY0M1owKjEoMCYGA1UEAwwfSU1HMl8xX3NoYTI1Nl8yMDQ4XzY1NTM3
X3YzX3VzcjCCASIwDQYJKoZIhvcNAQEBBQADggEPADCCAQoCggEBANOPt4AAyLCM
Lvy/l2BkUAo+OxF8MpNeybhhg2RmO3KrmXOrMBmPy4gbQJ+tGyP1ydhww72LpbLt
K40rlljddHBy40Zj3HORmeuZF/uz/wSaYxbR+fYnHlYnI4HvRwbjzBKJYMhUqSN/
Mczd0qkN7Klpjz1mdLHmFS3UVgnMvyM+/TRwFyTG0FhCS3sqbFTjOvVhHeKLp7xS
t9tHrenekFP6GX3AQwCyv+NM277BBEygDjHyI5/+Q7OXNRZMdUJ2KigF35ExF+eT
8M27B7kJreETf6NURWq1j4TzmLpSxhgyYtMFtgALpE/AHCwVQ+F3wIFvooFB5Lbi
zXm3ac6x5jUCAwEAAaN7MHkwCQYDVR0TBAIwADAsBglghkgBhvhCAQ0EHxYdT3Bl
blNTTCBHZW5lcmF0ZWQgQ2VydGlmaWNhdGUwHQYDVR0OBBYEFLhH4IAPDbkXVHGU
ZeUAhhbbiMhIMB8GA1UdIwQYMBaAFOZpU68SXKxfPWsuimqxbRxh7yn9MA0GCSqG
SIb3DQEBCwUAA4IBAQBF5c6/24kEvFrSG+AC+0CLKOTdA9X5P4Q9J9L5FpVugGmC
Z9lq++Txp/9o2jbZ9NJ65r7zF4EDbWVg5dBZsMB+oL5Pwu6BRRL+4xk8VIFssqK1
RD5z5AsM+UKzIfv8T+n6WeEqhn6ws31/PVGetpRjWCzJeEkIW/3bIZUyUp6t5mMA
Uva/sKk+zd2mCav8JlmxoQIa1v9+rKZT7PznaciTqbGLdm5nLnsYNcmJrh6pt4Nw
qfwHNiFTSvpPUWnAcSBJUobWuIwfoSdtLTuzAoX2qnHKZIzpr8QtJDn6XwBvwvmA
i7odxiqrqS2wDjTNWOtx1T3FpKnLnRKaDkIzOwY4
-----END CERTIFICATE-----
