Certificate:
    Data:
        Version: 3 (0x2)
        Serial Number: 305419896 (0x12345678)
    Signature Algorithm: sha256WithRSAEncryption
        Issuer: CN=CA1_sha256_2048_65537_v3_ca
        Validity
            Not Before: Jun 28 01:16:36 2016 GMT
            Not After : Jun 26 01:16:36 2026 GMT
        Subject: CN=SRK1_sha256_2048_65537_v3_ca
        Subject Public Key Info:
            Public Key Algorithm: rsaEncryption
                Public-Key: (2048 bit)
                Modulus:
                    00:bc:54:40:ac:3f:6c:6a:0a:91:29:c9:fa:ba:46:
                    ab:08:f0:2a:5b:49:04:21:c3:2b:d7:a8:16:5d:c9:
                    fe:71:fd:b9:f6:20:33:e7:95:5a:bc:cf:b0:e0:8d:
                    44:9c:db:a3:68:1b:98:83:80:06:96:10:10:ea:21:
                    fe:b3:e9:69:81:c2:01:5f:81:e0:ca:91:b3:c9:54:
                    7e:aa:76:fe:81:c6:d4:01:47:0c:36:0d:4b:53:13:
                    f0:23:4c:a9:c1:1c:62:f1:80:15:da:3b:62:90:c1:
                    75:cd:7a:80:2a:57:7e:89:b5:27:29:1b:08:98:9a:
                    6e:27:08:4a:40:29:2e:bb:db:a7:95:3e:ec:b4:c8:
                    cb:06:64:a4:23:aa:78:a7:fb:fe:79:b8:f4:be:1c:
                    a5:4f:70:bc:88:83:3f:7e:75:eb:24:d5:31:35:5c:
                    c4:9f:69:89:14:f2:6f:8b:67:8b:0a:ae:75:ec:b2:
                    d8:12:be:fb:52:48:7c:83:3c:aa:11:85:89:d5:d5:
                    d7:4d:ca:bc:66:53:09:a2:9e:8d:44:30:01:d7:d5:
                    11:40:99:1c:85:22:4d:1e:e1:f2:72:2b:57:8d:b7:
                    f6:44:fe:91:12:e9:45:6e:9e:a4:66:11:c7:d5:4b:
                    c0:dc:f1:82:da:2a:76:1f:57:50:64:b3:67:52:51:
                    1e:a5
                Exponent: 65537 (0x10001)
        X509v3 extensions:
            X509v3 Subject Key Identifier: 
                60:ED:F9:70:38:A7:83:05:A6:FA:98:D3:69:9C:94:DE:F4:4C:75:FE
            X509v3 Authority Key Identifier: 
                keyid:91:CC:DA:2E:D4:05:04:CB:C4:44:58:E3:70:41:08:D6:35:12:DD:07
                DirName:/CN=CA1_sha256_2048_65537_v3_ca
                serial:98:E6:CB:B5:40:55:C2:1C

            X509v3 Basic Constraints: critical
                CA:TRUE
            X509v3 Key Usage: 
                Certificate Sign
    Signature Algorithm: sha256WithRSAEncryption
         c0:7c:41:25:93:23:c8:3e:83:50:b7:12:fb:fc:03:9e:59:1d:
         ca:b2:bf:8c:42:a7:22:04:e1:21:c6:45:26:08:77:72:50:93:
         cc:4f:70:65:85:6d:98:48:b5:c5:82:15:b4:09:57:23:a3:88:
         f1:77:ae:c9:46:e5:d1:24:32:81:c9:17:0f:a8:3e:9d:59:16:
         12:a3:9f:e0:d5:04:ff:43:c1:ef:65:3a:29:7b:6b:97:15:2e:
         61:d0:4b:fb:a0:52:d0:32:2f:20:46:70:90:9d:b8:83:df:ea:
         ad:9e:53:0e:a3:76:a9:81:1d:d2:35:f7:6b:0a:b6:3a:26:8d:
         59:94:67:52:d1:7d:7a:9f:1b:2f:84:22:68:c1:88:68:62:31:
         d4:e1:bd:d3:9c:d3:48:5a:1d:19:7b:63:e0:5b:b4:3e:a9:60:
         d7:f2:3d:7c:6e:fd:90:01:28:ef:93:18:49:ec:3d:d6:ff:db:
         0c:1c:ce:ee:ba:f9:18:da:34:6d:e4:91:9d:45:74:e8:f7:6c:
         8b:88:28:8b:ed:96:86:d0:71:32:27:2a:fd:c6:22:36:6e:5a:
         44:ba:bd:de:e4:a6:5e:72:ad:a1:2e:cf:4c:79:5c:65:9c:02:
         b8:d3:3e:0a:57:39:0d:04:99:8b:5d:be:50:b2:b0:c4:a2:57:
         67:ad:c6:55
-----BEGIN CERTIFICATE-----
MIIDZDCCAkygAwIBAgIEEjRWeDANBgkqhkiG9w0BAQsFADAmMSQwIgYDVQQDFBtD
QTFfc2hhMjU2XzIwNDhfNjU1MzdfdjNfY2EwHhcNMTYwNjI4MDExNjM2WhcNMjYw
NjI2MDExNjM2WjAnMSUwIwYDVQQDDBxTUksxX3NoYTI1Nl8yMDQ4XzY1NTM3X3Yz
X2NhMIIBIjANBgkqhkiG9w0BAQEFAAOCAQ8AMIIBCgKCAQEAvFRArD9sagqRKcn6
ukarCPAqW0kEIcMr16gWXcn+cf259iAz55VavM+w4I1EnNujaBuYg4AGlhAQ6iH+
s+lpgcIBX4HgypGzyVR+qnb+gcbUAUcMNg1LUxPwI0ypwRxi8YAV2jtikMF1zXqA
Kld+ibUnKRsImJpuJwhKQCkuu9unlT7stMjLBmSkI6p4p/v+ebj0vhylT3C8iIM/
fnXrJNUxNVzEn2mJFPJvi2eLCq517LLYEr77Ukh8gzyqEYWJ1dXXTcq8ZlMJop6N
RDAB19URQJkchSJNHuHycitXjbf2RP6REulFbp6kZhHH1UvA3PGC2ip2H1dQZLNn
UlEepQIDAQABo4GYMIGVMB0GA1UdDgQWBBRg7flwOKeDBab6mNNpnJTe9Ex1/jBW
BgNVHSMETzBNgBSRzNou1AUEy8REWONwQQjWNRLdB6EqpCgwJjEkMCIGA1UEAxQb
Q0ExX3NoYTI1Nl8yMDQ4XzY1NTM3X3YzX2NhggkAmObLtUBVwhwwDwYDVR0TAQH/
BAUwAwEB/zALBgNVHQ8EBAMCAgQwDQYJKoZIhvcNAQELBQADggEBAMB8QSWTI8g+
g1C3Evv8A55ZHcqyv4xCpyIE4SHGRSYId3JQk8xPcGWFbZhItcWCFbQJVyOjiPF3
rslG5dEkMoHJFw+oPp1ZFhKjn+DVBP9Dwe9lOil7a5cVLmHQS/ugUtAyLyBGcJCd
uIPf6q2eUw6jdqmBHdI192sKtjomjVmUZ1LRfXqfGy+EImjBiGhiMdThvdOc00ha
HRl7Y+BbtD6pYNfyPXxu/ZABKO+TGEnsPdb/2wwczu66+RjaNG3kkZ1FdOj3bIuI
KIvtlobQcTInKv3GIjZuWkS6vd7kpl5yraEuz0x5XGWcArjTPgpXOQ0EmYtdvlCy
sMSiV2etxlU=
-----END CERTIFICATE-----
