Certificate:
    Data:
        Version: 3 (0x2)
        Serial Number: 305419904 (0x12345680)
    Signature Algorithm: sha256WithRSAEncryption
        Issuer: CN=SRK3_sha256_2048_65537_v3_ca
        Validity
            Not Before: Jun 28 01:16:46 2016 GMT
            Not After : Jun 26 01:16:46 2026 GMT
        Subject: CN=IMG3_1_sha256_2048_65537_v3_usr
        Subject Public Key Info:
            Public Key Algorithm: rsaEncryption
                Public-Key: (2048 bit)
                Modulus:
                    00:c1:02:8a:98:c0:a6:b5:e4:30:aa:22:f1:1e:af:
                    4d:e7:a0:a5:42:d3:44:50:6d:3b:7d:2b:50:0e:ac:
                    08:5b:e7:b1:5c:52:02:1d:ba:32:dd:40:eb:f0:04:
                    1d:f9:95:b1:c8:2d:7f:f9:e2:b3:67:80:f9:86:03:
                    ec:de:64:3b:fe:9a:32:1a:5e:89:5c:80:1d:80:a0:
                    1d:af:97:11:8e:c1:47:ec:06:b5:88:ef:10:10:e9:
                    d9:22:00:bb:35:6e:0f:7b:05:56:e5:31:cd:44:e4:
                    99:43:7a:b9:5b:78:4c:97:45:28:ab:bf:35:f4:68:
                    e7:d0:cd:fb:a9:b3:a6:18:c2:64:e9:c6:e2:c3:90:
                    1d:6e:ba:cd:0c:9b:70:28:d2:b5:c9:5d:26:a9:96:
                    8f:38:50:e8:78:48:08:2a:f8:3e:da:2d:58:f3:4f:
                    4b:5a:15:19:61:f8:22:f0:94:98:8a:c3:1b:a8:49:
                    f4:48:2b:bb:aa:23:a0:aa:14:6b:41:92:ca:00:4a:
                    2c:66:c9:12:fb:d1:8d:a1:37:1f:03:14:49:1d:e4:
                    38:61:59:a1:56:fe:b7:81:e7:7c:5a:b8:f7:cc:ec:
                    f4:9d:b1:27:d8:38:15:1f:d1:9f:5a:9a:86:ec:fd:
                    c5:87:9a:a7:d1:1c:6f:27:62:73:ad:62:e9:52:7f:
                    0a:db
                Exponent: 65537 (0x10001)
        X509v3 extensions:
            X509v3 Basic Constraints: 
                CA:FALSE
            Netscape Comment: 
                OpenSSL Generated Certificate
            X509v3 Subject Key Identifier: 
                40:98:A0:A5:9D:DC:7B:6C:C1:8A:AF:CF:2D:44:A7:59:FC:D6:BD:14
            X509v3 Authority Key Identifier: 
                keyid:D1:51:CA:E6:A2:1F:ED:B7:A7:67:6F:C5:4C:45:1E:8C:88:21:70:2B

    Signature Algorithm: sha256WithRSAEncryption
         45:77:80:a5:11:7a:0d:77:b4:e4:d6:cd:5c:e6:ba:78:0e:e0:
         6b:ec:a2:03:27:5f:5d:e6:b7:f1:7c:fd:83:d1:ea:21:8d:f5:
         97:1a:7a:72:21:58:b8:0e:18:ad:a9:5b:f0:32:11:1d:6d:e2:
         a1:d2:87:c1:c3:eb:12:ef:8d:98:eb:1c:62:5f:09:7a:1f:9f:
         92:97:bd:fd:a4:4d:e4:b8:d4:03:b2:e6:de:6a:6b:8f:fb:ff:
         1b:4f:1e:92:2b:fe:b9:40:07:cb:d5:2e:3f:35:a9:6b:17:84:
         72:7e:f8:1f:5e:4c:9c:32:41:9f:71:73:f5:94:d5:10:66:64:
         7e:ec:a3:9c:aa:26:8e:ee:e6:31:90:74:51:1b:cd:5a:79:1d:
         97:d8:c8:c9:73:c1:bc:51:ea:a6:3e:3a:1e:bc:69:5c:fa:3a:
         74:a4:b3:0e:7b:71:d2:40:b3:b7:15:d7:4a:4d:54:df:68:71:
         10:15:c0:f4:fe:9a:cd:a6:2d:56:e1:c5:6e:f4:74:4d:98:3b:
         22:0e:a2:8e:9f:c1:4d:04:46:08:c2:fb:c1:f1:4c:de:ad:53:
         1f:7c:77:65:af:ce:8e:b7:5d:34:4b:9e:52:59:3a:72:b5:14:
         31:4b:b8:3e:b1:8e:b9:21:8a:63:9c:fd:49:ce:48:a4:ad:3c:
         df:47:98:e0
-----BEGIN CERTIFICATE-----
MIIDSjCCAjKgAwIBAgIEEjRWgDANBgkqhkiG9w0BAQsFADAnMSUwIwYDVQQDDBxT
UkszX3NoYTI1Nl8yMDQ4XzY1NTM3X3YzX2NhMB4XDTE2MDYyODAxMTY0NloXDTI2
MDYyNjAxMTY0NlowKjEoMCYGA1UEAwwfSU1HM18xX3NoYTI1Nl8yMDQ4XzY1NTM3
X3YzX3VzcjCCASIwDQYJKoZIhvcNAQEBBQADggEPADCCAQoCggEBAMECipjAprXk
MKoi8R6vTeegpULTRFBtO30rUA6sCFvnsVxSAh26Mt1A6/AEHfmVscgtf/nis2eA
+YYD7N5kO/6aMhpeiVyAHYCgHa+XEY7BR+wGtYjvEBDp2SIAuzVuD3sFVuUxzUTk
mUN6uVt4TJdFKKu/NfRo59DN+6mzphjCZOnG4sOQHW66zQybcCjStcldJqmWjzhQ
6HhICCr4PtotWPNPS1oVGWH4IvCUmIrDG6hJ9Egru6ojoKoUa0GSygBKLGbJEvvR
jaE3HwMUSR3kOGFZoVb+t4HnfFq498zs9J2xJ9g4FR/Rn1qahuz9xYeap9Ecbydi
c61i6VJ/CtsCAwEAAaN7MHkwCQYDVR0TBAIwADAsBglghkgBhvhCAQ0EHxYdT3Bl
blNTTCBHZW5lcmF0ZWQgQ2VydGlmaWNhdGUwHQYDVR0OBBYEFECYoKWd3HtswYqv
zy1Ep1n81r0UMB8GA1UdIwQYMBaAFNFRyuaiH+23p2dvxUxFHoyIIXArMA0GCSqG
SIb3DQEBCwUAA4IBAQBFd4ClEXoNd7Tk1s1c5rp4DuBr7KIDJ19d5rfxfP2D0eoh
jfWXGnpyIVi4DhitqVvwMhEdbeKh0ofBw+sS742Y6xxiXwl6H5+Sl739pE3kuNQD
subeamuP+/8bTx6SK/65QAfL1S4/NalrF4RyfvgfXkycMkGfcXP1lNUQZmR+7KOc
qiaO7uYxkHRRG81aeR2X2MjJc8G8UeqmPjoevGlc+jp0pLMOe3HSQLO3FddKTVTf
aHEQFcD0/prNpi1W4cVu9HRNmDsiDqKOn8FNBEYIwvvB8UzerVMffHdlr86Ot100
S55SWTpytRQxS7g+sY65IYpjnP1JzkikrTzfR5jg
-----END CERTIFICATE-----
