Certificate:
    Data:
        Version: 3 (0x2)
        Serial Number: 305419897 (0x12345679)
    Signature Algorithm: sha256WithRSAEncryption
        Issuer: CN=SRK1_sha256_2048_65537_v3_ca
        Validity
            Not Before: Jun 28 01:16:37 2016 GMT
            Not After : Jun 26 01:16:37 2026 GMT
        Subject: CN=CSF1_1_sha256_2048_65537_v3_usr
        Subject Public Key Info:
            Public Key Algorithm: rsaEncryption
                Public-Key: (2048 bit)
                Modulus:
                    00:d0:6c:83:1d:c0:46:f8:49:15:b0:bc:50:ad:e0:
                    40:10:3e:61:8f:f6:ff:12:71:5b:0e:5e:4e:ea:cb:
                    7f:ca:3f:7f:d0:49:46:bc:a2:a8:6c:0d:b8:14:a5:
                    dd:fe:9b:3d:f6:fe:6b:52:46:21:3b:13:6c:6b:b2:
                    1f:eb:35:64:c3:08:a4:53:e1:07:4b:2e:e3:63:46:
                    ea:b1:7c:25:5f:73:80:5a:db:8f:27:a5:98:26:36:
                    ef:d0:10:02:7d:7f:08:f4:2e:56:6f:cf:78:60:8f:
                    57:af:c0:5e:f5:2a:18:c6:27:98:29:d9:69:f1:ea:
                    a3:54:b5:82:4c:ff:c9:5a:ed:df:bd:e1:1d:47:fb:
                    9b:fa:ff:f6:b6:9a:4a:92:76:fa:89:67:24:e0:b8:
                    3a:e9:8b:59:5e:2e:48:d3:4d:69:a9:e2:ab:c6:13:
                    07:c7:02:54:c1:45:5e:66:0a:f4:33:79:ee:1a:31:
                    ad:71:56:c0:f7:b2:59:ca:58:31:a2:cd:a5:68:b9:
                    07:5a:58:56:63:39:bc:1f:e8:94:06:c5:d7:7d:04:
                    01:d6:f7:e7:3a:f5:77:f0:e3:6c:d9:3b:25:a5:ee:
                    1f:50:72:2b:50:3c:06:da:33:95:37:ba:f2:d1:60:
                    ad:90:5d:73:ed:b0:0a:c5:c4:fa:cb:2d:36:e7:aa:
                    d9:8d
                Exponent: 65537 (0x10001)
        X509v3 extensions:
            X509v3 Basic Constraints: 
                CA:FALSE
            Netscape Comment: 
                OpenSSL Generated Certificate
            X509v3 Subject Key Identifier: 
                5C:41:94:9E:66:4B:6A:8B:28:86:8D:0C:47:0E:EB:06:05:9C:E6:F0
            X509v3 Authority Key Identifier: 
                keyid:60:ED:F9:70:38:A7:83:05:A6:FA:98:D3:69:9C:94:DE:F4:4C:75:FE

    Signature Algorithm: sha256WithRSAEncryption
         a4:98:18:f8:d1:3d:d3:68:dc:59:04:3e:09:99:7f:ff:a5:9b:
         98:23:21:ee:92:17:8f:75:aa:2e:28:0a:a9:a0:e1:16:b3:ff:
         72:a3:48:d9:ee:08:47:b8:de:0c:13:92:e2:a3:21:96:63:f6:
         14:f4:27:35:08:18:b3:e8:45:57:3e:42:7a:dc:b5:c3:02:f1:
         38:c3:0c:14:ed:b0:61:8a:f1:cf:3e:9d:8f:e3:a8:14:85:cb:
         e3:35:fe:c2:94:2a:21:0e:41:ac:38:36:5d:84:48:7b:05:d3:
         75:67:62:6e:68:a0:55:3a:b3:24:e9:9b:60:cb:c0:0c:7c:84:
         77:45:8d:ab:ef:f7:26:6b:c1:d1:6d:87:31:90:98:55:31:97:
         e7:46:b2:c0:c2:3b:69:bd:9c:86:b8:e5:78:52:dd:37:b5:1d:
         a5:73:ed:b9:e5:bc:1c:1c:13:d2:2a:12:5e:df:94:ca:da:60:
         b1:e3:02:da:60:71:31:18:32:42:4a:5f:80:9f:40:1d:ff:40:
         2a:6c:ec:a0:50:80:53:6a:23:1f:82:87:83:ab:88:ae:0f:1d:
         ab:30:19:06:be:3e:4c:ad:76:64:88:a7:6f:0f:b3:78:22:0d:
         62:77:54:91:7d:60:77:65:79:95:e2:86:d9:dd:a9:40:92:a7:
         d9:23:14:5e
-----BEGIN CERTIFICATE-----
MIIDSjCCAjKgAwIBAgIEEjRWeTANBgkqhkiG9w0BAQsFADAnMSUwIwYDVQQDDBxT
UksxX3NoYTI1Nl8yMDQ4XzY1NTM3X3YzX2NhMB4XDTE2MDYyODAxMTYzN1oXDTI2
MDYyNjAxMTYzN1owKjEoMCYGA1UEAwwfQ1NGMV8xX3NoYTI1Nl8yMDQ4XzY1NTM3
X3YzX3VzcjCCASIwDQYJKoZIhvcNAQEBBQADggEPADCCAQoCggEBANBsgx3ARvhJ
FbC8UK3gQBA+YY/2/xJxWw5eTurLf8o/f9BJRryiqGwNuBSl3f6bPfb+a1JGITsT
bGuyH+s1ZMMIpFPhB0su42NG6rF8JV9zgFrbjyelmCY279AQAn1/CPQuVm/PeGCP
V6/AXvUqGMYnmCnZafHqo1S1gkz/yVrt373hHUf7m/r/9raaSpJ2+olnJOC4OumL
WV4uSNNNaaniq8YTB8cCVMFFXmYK9DN57hoxrXFWwPeyWcpYMaLNpWi5B1pYVmM5
vB/olAbF130EAdb35zr1d/DjbNk7JaXuH1ByK1A8BtozlTe68tFgrZBdc+2wCsXE
+sstNueq2Y0CAwEAAaN7MHkwCQYDVR0TBAIwADAsBglghkgBhvhCAQ0EHxYdT3Bl
blNTTCBHZW5lcmF0ZWQgQ2VydGlmaWNhdGUwHQYDVR0OBBYEFFxBlJ5mS2qLKIaN
DEcO6wYFnObwMB8GA1UdIwQYMBaAFGDt+XA4p4MFpvqY02mclN70THX+MA0GCSqG
SIb3DQEBCwUAA4IBAQCkmBj40T3TaNxZBD4JmX//pZuYIyHukhePdaouKAqpoOEW
s/9yo0jZ7ghHuN4ME5LioyGWY/YU9Cc1CBiz6EVXPkJ63LXDAvE4wwwU7bBhivHP
Pp2P46gUhcvjNf7ClCohDkGsODZdhEh7BdN1Z2JuaKBVOrMk6Ztgy8AMfIR3RY2r
7/cma8HRbYcxkJhVMZfnRrLAwjtpvZyGuOV4Ut03tR2lc+255bwcHBPSKhJe35TK
2mCx4wLaYHExGDJCSl+An0Ad/0AqbOygUIBTaiMfgoeDq4iuDx2rMBkGvj5MrXZk
iKdvD7N4Ig1id1SRfWB3ZXmV4obZ3alAkqfZIxRe
-----END CERTIFICATE-----
