Certificate:
    Data:
        Version: 3 (0x2)
        Serial Number: 305419898 (0x1234567a)
    Signature Algorithm: sha256WithRSAEncryption
        Issuer: CN=SRK1_sha256_2048_65537_v3_ca
        Validity
            Not Before: Jun 28 01:16:39 2016 GMT
            Not After : Jun 26 01:16:39 2026 GMT
        Subject: CN=IMG1_1_sha256_2048_65537_v3_usr
        Subject Public Key Info:
            Public Key Algorithm: rsaEncryption
                Public-Key: (2048 bit)
                Modulus:
                    00:9d:d7:64:1c:56:32:a0:08:b1:54:d6:6e:c6:fd:
                    bc:7f:c1:c0:53:d8:24:ba:18:0a:4c:00:b9:20:98:
                    ab:6d:67:72:9e:7d:46:6b:86:67:f2:a4:53:cf:9c:
                    10:2f:81:a0:3b:28:4a:57:69:c1:8f:c9:89:58:ad:
                    95:13:c4:35:40:7c:e5:a1:d1:69:13:1a:6b:0c:22:
                    3c:af:fa:19:cc:81:16:60:63:d5:db:b2:20:ec:f9:
                    bb:9c:4f:0c:4c:ff:d9:ef:f7:29:f9:03:e0:cf:de:
                    c3:4c:69:e7:05:c4:94:2f:ac:2b:31:e1:cb:9d:00:
                    61:b9:b7:1f:f2:9b:10:25:f6:e2:df:1a:4b:77:8a:
                    89:57:2a:87:f6:dd:b0:e3:7b:ee:87:a1:d1:8a:6d:
                    79:fd:e4:8b:9e:6d:e0:98:fa:3e:bd:50:1e:3a:4f:
                    e2:b3:2b:22:07:4e:ac:b0:cd:bf:2e:0f:3b:d1:f2:
                    f0:75:fb:f9:09:3c:a0:1f:c0:b1:9c:4e:2e:16:bd:
                    4b:5c:51:bf:4d:45:c4:65:6f:8a:24:30:42:4e:f7:
                    c5:cf:3a:d7:23:d4:47:94:90:71:e9:b2:fc:22:7a:
                    4e:af:98:dd:26:fe:e0:08:9b:b1:71:44:a5:3b:77:
                    9e:48:3c:3b:3f:a6:d2:a0:9d:07:2a:76:18:4a:f7:
                    fb:ff
                Exponent: 65537 (0x10001)
        X509v3 extensions:
            X509v3 Basic Constraints: 
                CA:FALSE
            Netscape Comment: 
                OpenSSL Generated Certificate
            X509v3 Subject Key Identifier: 
                A1:19:09:DF:47:1F:67:33:C7:24:4B:60:3C:5B:C5:38:1B:87:5B:E7
            X509v3 Authority Key Identifier: 
                keyid:60:ED:F9:70:38:A7:83:05:A6:FA:98:D3:69:9C:94:DE:F4:4C:75:FE

    Signature Algorithm: sha256WithRSAEncryption
         2a:9e:c0:b8:66:ec:32:00:1e:0c:7b:64:9a:42:6e:37:76:f1:
         2a:96:0d:38:26:2f:0e:82:4e:fc:43:23:ce:df:b7:bb:8f:4c:
         62:f5:f5:b7:05:31:e1:04:a8:d7:80:a9:e0:c0:8c:fb:ba:65:
         62:43:f7:ea:a8:5f:97:80:db:7c:56:a0:48:1b:d3:fd:1f:f3:
         e3:0c:cd:e2:6c:2e:3c:bb:5c:53:ad:a8:20:d9:23:91:73:2b:
         28:49:7d:bf:2b:7c:64:88:aa:92:47:4e:34:45:14:ea:ba:7f:
         89:55:da:1a:49:8b:05:7d:f3:11:f3:6d:b8:ad:9a:2f:83:17:
         fb:be:15:3f:c3:c2:c5:7a:9e:8c:62:57:e9:1d:c2:fb:c6:1d:
         53:70:7b:b9:e4:c3:2b:56:b5:e6:a7:38:21:ca:68:9e:5d:6f:
         6c:1a:b6:60:a6:59:1c:34:0c:aa:7a:30:46:f9:c6:49:fc:bc:
         b3:18:12:a5:ad:4d:69:20:c8:f9:61:3d:57:1f:92:5e:79:6e:
         77:a7:aa:bc:bc:9e:d6:98:63:fd:2b:c2:92:aa:ee:ff:cf:e7:
         4f:6e:40:ae:13:5e:4c:4e:23:22:74:ef:69:39:f5:1c:32:f3:
         80:67:40:60:0a:ce:2c:2f:ef:34:c5:04:cf:99:4b:de:ce:f9:
         ef:8f:7a:74
-----BEGIN CERTIFICATE-----
MIIDSjCCAjKgAwIBAgIEEjRWejANBgkqhkiG9w0BAQsFADAnMSUwIwYDVQQDDBxT
UksxX3NoYTI1Nl8yMDQ4XzY1NTM3X3YzX2NhMB4XDTE2MDYyODAxMTYzOVoXDTI2
MDYyNjAxMTYzOVowKjEoMCYGA1UEAwwfSU1HMV8xX3NoYTI1Nl8yMDQ4XzY1NTM3
X3YzX3VzcjCCASIwDQYJKoZIhvcNAQEBBQADggEPADCCAQoCggEBAJ3XZBxWMqAI
sVTWbsb9vH/BwFPYJLoYCkwAuSCYq21ncp59RmuGZ/KkU8+cEC+BoDsoSldpwY/J
iVitlRPENUB85aHRaRMaawwiPK/6GcyBFmBj1duyIOz5u5xPDEz/2e/3KfkD4M/e
w0xp5wXElC+sKzHhy50AYbm3H/KbECX24t8aS3eKiVcqh/bdsON77oeh0Yptef3k
i55t4Jj6Pr1QHjpP4rMrIgdOrLDNvy4PO9Hy8HX7+Qk8oB/AsZxOLha9S1xRv01F
xGVviiQwQk73xc861yPUR5SQcemy/CJ6Tq+Y3Sb+4AibsXFEpTt3nkg8Oz+m0qCd
Byp2GEr3+/8CAwEAAaN7MHkwCQYDVR0TBAIwADAsBglghkgBhvhCAQ0EHxYdT3Bl
blNTTCBHZW5lcmF0ZWQgQ2VydGlmaWNhdGUwHQYDVR0OBBYEFKEZCd9HH2czxyRL
YDxbxTgbh1vnMB8GA1UdIwQYMBaAFGDt+XA4p4MFpvqY02mclN70THX+MA0GCSqG
SIb3DQEBCwUAA4IBAQAqnsC4ZuwyAB4Me2SaQm43dvEqlg04Ji8Ogk78QyPO37e7
j0xi9fW3BTHhBKjXgKngwIz7umViQ/fqqF+XgNt8VqBIG9P9H/PjDM3ibC48u1xT
ragg2SORcysoSX2/K3xkiKqSR040RRTqun+JVdoaSYsFffMR8224rZovgxf7vhU/
w8LFep6MYlfpHcL7xh1TcHu55MMrVrXmpzghymieXW9sGrZgplkcNAyqejBG+cZJ
/LyzGBKlrU1pIMj5YT1XH5JeeW53p6q8vJ7WmGP9K8KSqu7/z+dPbkCuE15MTiMi
dO9pOfUcMvOAZ0BgCs4sL+80xQTPmUvezvnvj3p0
-----END CERTIFICATE-----
