Certificate:
    Data:
        Version: 3 (0x2)
        Serial Number: 305419900 (0x1234567c)
    Signature Algorithm: sha256WithRSAEncryption
        Issuer: CN=SRK2_sha256_2048_65537_v3_ca
        Validity
            Not Before: Jun 28 01:16:41 2016 GMT
            Not After : Jun 26 01:16:41 2026 GMT
        Subject: CN=CSF2_1_sha256_2048_65537_v3_usr
        Subject Public Key Info:
            Public Key Algorithm: rsaEncryption
                Public-Key: (2048 bit)
                Modulus:
                    00:cc:51:3e:f9:34:c3:ec:ce:5b:0f:04:2a:11:0a:
                    25:53:5e:fe:26:f5:b6:46:2a:ff:30:68:0f:e3:27:
                    73:36:06:6e:ba:8e:4a:cb:cf:7d:f2:66:ef:66:4f:
                    54:96:98:3c:ff:65:88:68:50:e0:9d:11:b0:d4:b8:
                    73:4f:9f:c7:08:13:02:52:1b:ae:bf:f4:39:94:66:
                    ca:8d:22:be:37:96:5b:a7:93:79:ad:8f:95:cd:85:
                    fd:39:3c:fe:6f:54:07:82:10:5e:ab:5f:85:6c:d8:
                    97:31:6c:bc:9e:41:5e:aa:7d:ca:ca:f8:31:ed:8d:
                    fc:6b:88:ed:6a:d4:1d:d2:a6:44:a1:3d:b2:ae:26:
                    3a:fe:6a:99:09:e3:7e:26:fa:68:da:3d:3d:0a:b5:
                    4a:f4:28:5b:c3:05:13:41:a9:82:7c:44:c5:4c:26:
                    66:6c:f0:8d:24:c1:fb:61:20:94:dd:b9:a2:04:f4:
                    22:dd:d0:e9:f6:92:99:b3:31:e7:82:3d:a6:bc:f6:
                    fd:95:7b:bb:02:50:a2:6b:81:30:90:83:17:2a:11:
                    09:b8:19:4e:05:c1:17:56:ff:27:b3:0b:78:ff:75:
                    87:21:6f:51:e5:cf:ff:35:ba:36:86:74:6c:82:09:
                    46:44:09:61:6d:6e:bc:4e:c4:75:87:73:c5:56:a8:
                    6e:23
                Exponent: 65537 (0x10001)
        X509v3 extensions:
            X509v3 Basic Constraints: 
                CA:FALSE
            Netscape Comment: 
                OpenSSL Generated Certificate
            X509v3 Subject Key Identifier: 
                E7:28:E7:F4:55:53:1D:E6:AC:D7:BE:94:7F:6B:74:E8:7E:B3:55:C9
            X509v3 Authority Key Identifier: 
                keyid:E6:69:53:AF:12:5C:AC:5F:3D:6B:2E:8A:6A:B1:6D:1C:61:EF:29:FD

    Signature Algorithm: sha256WithRSAEncryption
         7b:85:27:60:ed:cb:97:f3:28:83:b0:6b:10:a1:6f:c4:70:c8:
         33:b0:e7:08:4a:fe:76:8e:94:91:73:2f:cc:55:98:2d:b4:2d:
         81:84:7f:d5:f3:9d:49:b5:81:38:a5:91:f3:98:a2:e1:95:8e:
         3a:4e:2d:87:93:ff:38:d1:79:9d:28:66:34:61:95:e4:e6:2d:
         fd:2e:65:1d:c5:bc:00:a1:14:46:cd:03:1d:52:c6:4a:95:cc:
         39:47:05:6b:03:ea:4d:d9:3e:51:02:27:6f:31:b9:87:81:ce:
         dd:41:62:06:e6:1a:8b:69:9a:c6:d5:48:67:84:23:82:10:b7:
         56:27:c7:e8:eb:c3:e7:39:74:a9:38:9d:46:51:e5:7c:2e:ff:
         d5:12:1b:ff:ce:9d:45:6b:30:56:7f:bf:49:e9:62:0e:c1:39:
         a0:f0:cb:37:ff:07:09:9d:4c:9d:ff:b3:d0:4e:e6:c4:c4:42:
         50:6f:d8:53:7f:cf:9c:b1:a9:bc:2b:d2:5f:21:75:b4:29:5f:
         af:bb:7d:f0:46:bc:38:c4:c7:5f:84:d2:a6:03:93:ab:81:13:
         83:09:d5:19:a8:fc:82:ae:37:78:cb:20:95:51:07:93:32:df:
         46:6f:87:a2:c4:30:9b:67:af:e0:07:9e:12:ec:4f:18:db:28:
         30:4c:3c:63
-----BEGIN CERTIFICATE-----
MIIDSjCCAjKgAwIBAgIEEjRWfDANBgkqhkiG9w0BAQsFADAnMSUwIwYDVQQDDBxT
UksyX3NoYTI1Nl8yMDQ4XzY1NTM3X3YzX2NhMB4XDTE2MDYyODAxMTY0MVoXDTI2
MDYyNjAxMTY0MVowKjEoMCYGA1UEAwwfQ1NGMl8xX3NoYTI1Nl8yMDQ4XzY1NTM3
X3YzX3VzcjCCASIwDQYJKoZIhvcNAQEBBQADggEPADCCAQoCggEBAMxRPvk0w+zO
Ww8EKhEKJVNe/ib1tkYq/zBoD+MnczYGbrqOSsvPffJm72ZPVJaYPP9liGhQ4J0R
sNS4c0+fxwgTAlIbrr/0OZRmyo0ivjeWW6eTea2Plc2F/Tk8/m9UB4IQXqtfhWzY
lzFsvJ5BXqp9ysr4Me2N/GuI7WrUHdKmRKE9sq4mOv5qmQnjfib6aNo9PQq1SvQo
W8MFE0GpgnxExUwmZmzwjSTB+2EglN25ogT0It3Q6faSmbMx54I9prz2/ZV7uwJQ
omuBMJCDFyoRCbgZTgXBF1b/J7MLeP91hyFvUeXP/zW6NoZ0bIIJRkQJYW1uvE7E
dYdzxVaobiMCAwEAAaN7MHkwCQYDVR0TBAIwADAsBglghkgBhvhCAQ0EHxYdT3Bl
blNTTCBHZW5lcmF0ZWQgQ2VydGlmaWNhdGUwHQYDVR0OBBYEFOco5/RVUx3mrNe+
lH9rdOh+s1XJMB8GA1UdIwQYMBaAFOZpU68SXKxfPWsuimqxbRxh7yn9MA0GCSqG
SIb3DQEBCwUAA4IBAQB7hSdg7cuX8yiDsGsQoW/EcMgzsOcISv52jpSRcy/MVZgt
tC2BhH/V851JtYE4pZHzmKLhlY46Ti2Hk/840XmdKGY0YZXk5i39LmUdxbwAoRRG
zQMdUsZKlcw5RwVrA+pN2T5RAidvMbmHgc7dQWIG5hqLaZrG1UhnhCOCELdWJ8fo
68PnOXSpOJ1GUeV8Lv/VEhv/zp1FazBWf79J6WIOwTmg8Ms3/wcJnUyd/7PQTubE
xEJQb9hTf8+csam8K9JfIXW0KV+vu33wRrw4xMdfhNKmA5OrgRODCdUZqPyCrjd4
yyCVUQeTMt9Gb4eixDCbZ6/gB54S7E8Y2ygwTDxj
-----END CERTIFICATE-----
