Certificate:
    Data:
        Version: 3 (0x2)
        Serial Number: 305419903 (0x1234567f)
    Signature Algorithm: sha256WithRSAEncryption
        Issuer: CN=SRK3_sha256_2048_65537_v3_ca
        Validity
            Not Before: Jun 28 01:16:45 2016 GMT
            Not After : Jun 26 01:16:45 2026 GMT
        Subject: CN=CSF3_1_sha256_2048_65537_v3_usr
        Subject Public Key Info:
            Public Key Algorithm: rsaEncryption
                Public-Key: (2048 bit)
                Modulus:
                    00:e3:56:1a:f9:a3:22:18:ad:55:97:73:54:68:75:
                    79:7f:79:e1:37:c4:5b:99:65:b2:a8:b4:87:da:fb:
                    d0:03:bd:05:3c:36:d8:2b:f0:58:71:a1:7d:ba:2a:
                    c4:91:15:45:fd:53:0a:99:20:a6:e6:51:26:1b:ce:
                    48:6a:13:b1:97:c4:9f:a7:52:bd:e2:b0:a2:14:fc:
                    4a:fc:44:45:ac:16:99:c6:cd:a5:a5:48:d6:84:0c:
                    0e:08:5b:10:1d:a6:30:73:ec:76:f2:24:f2:e8:7b:
                    c1:00:26:22:ce:83:6c:18:e4:4f:cd:8e:dd:fd:28:
                    43:3e:ae:82:1f:c0:ac:22:b8:6b:fe:6c:f7:94:5d:
                    79:5f:e1:bb:ee:67:fb:0e:61:22:d9:9c:82:2c:d6:
                    1c:f4:e8:57:83:96:c9:2b:54:66:e0:6a:36:9b:ee:
                    35:85:a2:c8:ef:7e:33:3c:47:81:20:34:d0:ab:72:
                    44:92:d0:73:68:f4:17:e3:f3:79:9b:37:3c:a9:6c:
                    ea:ba:2b:84:ef:5a:2f:dc:0d:29:b1:21:22:ca:c5:
                    79:8c:6b:82:3e:b1:4b:37:d2:dd:dd:f8:ae:ae:b4:
                    02:3e:1c:31:6c:68:79:11:24:03:e8:1e:89:bc:60:
                    e4:42:9f:a7:ef:f9:0d:8c:47:99:c4:b3:fa:30:39:
                    76:3b
                Exponent: 65537 (0x10001)
        X509v3 extensions:
            X509v3 Basic Constraints: 
                CA:FALSE
            Netscape Comment: 
                OpenSSL Generated Certificate
            X509v3 Subject Key Identifier: 
                B2:C4:C0:6D:00:35:96:29:21:B6:16:3E:9D:62:4C:AC:18:E1:9D:DC
            X509v3 Authority Key Identifier: 
                keyid:D1:51:CA:E6:A2:1F:ED:B7:A7:67:6F:C5:4C:45:1E:8C:88:21:70:2B

    Signature Algorithm: sha256WithRSAEncryption
         3f:60:6c:a3:cc:c3:1c:fa:a8:04:60:e8:24:5b:41:c6:0c:7d:
         40:9e:2c:99:3b:2e:f1:93:f2:29:65:35:a3:41:a0:cc:32:4d:
         a2:76:8c:3a:4c:33:2d:5b:60:7c:22:2f:29:f6:d6:6b:c8:53:
         4e:2c:40:71:f3:8f:d2:55:64:1d:e1:82:49:60:9f:8e:35:ba:
         e7:02:27:0f:40:a7:a4:18:69:cb:8a:c5:54:56:51:b4:40:f6:
         92:d6:db:5c:a9:ef:e3:ee:1c:39:62:88:66:74:3a:82:47:9f:
         ad:07:dc:0b:ca:eb:e7:f8:aa:d9:71:44:ec:75:84:3b:f4:ff:
         9e:a2:f4:aa:f3:d7:f6:49:d1:da:d8:6a:f1:ab:34:ea:60:be:
         1c:01:38:cd:d3:b9:6d:b1:01:69:a2:8a:8c:0f:55:b2:60:b2:
         c4:8f:11:94:87:4e:7e:61:7a:4f:ed:a3:41:96:81:93:74:29:
         97:3b:83:98:f2:62:57:0c:4c:7c:8a:37:02:e3:92:28:44:bc:
         da:a4:bd:46:52:17:9e:30:3d:5f:5f:d4:9d:07:64:95:4a:eb:
         6d:ba:34:bc:29:29:ef:e8:b3:8a:5f:94:7a:8b:0c:2f:1b:7f:
         73:e8:05:09:03:f6:38:75:63:93:51:f9:bf:dc:a7:92:10:08:
         9f:11:85:47
-----BEGIN CERTIFICATE-----
MIIDSjCCAjKgAwIBAgIEEjRWfzANBgkqhkiG9w0BAQsFADAnMSUwIwYDVQQDDBxT
UkszX3NoYTI1Nl8yMDQ4XzY1NTM3X3YzX2NhMB4XDTE2MDYyODAxMTY0NVoXDTI2
MDYyNjAxMTY0NVowKjEoMCYGA1UEAwwfQ1NGM18xX3NoYTI1Nl8yMDQ4XzY1NTM3
X3YzX3VzcjCCASIwDQYJKoZIhvcNAQEBBQADggEPADCCAQoCggEBAONWGvmjIhit
VZdzVGh1eX954TfEW5llsqi0h9r70AO9BTw22CvwWHGhfboqxJEVRf1TCpkgpuZR
JhvOSGoTsZfEn6dSveKwohT8SvxERawWmcbNpaVI1oQMDghbEB2mMHPsdvIk8uh7
wQAmIs6DbBjkT82O3f0oQz6ugh/ArCK4a/5s95RdeV/hu+5n+w5hItmcgizWHPTo
V4OWyStUZuBqNpvuNYWiyO9+MzxHgSA00KtyRJLQc2j0F+PzeZs3PKls6rorhO9a
L9wNKbEhIsrFeYxrgj6xSzfS3d34rq60Aj4cMWxoeREkA+geibxg5EKfp+/5DYxH
mcSz+jA5djsCAwEAAaN7MHkwCQYDVR0TBAIwADAsBglghkgBhvhCAQ0EHxYdT3Bl
blNTTCBHZW5lcmF0ZWQgQ2VydGlmaWNhdGUwHQYDVR0OBBYEFLLEwG0ANZYpIbYW
Pp1iTKwY4Z3cMB8GA1UdIwQYMBaAFNFRyuaiH+23p2dvxUxFHoyIIXArMA0GCSqG
SIb3DQEBCwUAA4IBAQA/YGyjzMMc+qgEYOgkW0HGDH1AniyZOy7xk/IpZTWjQaDM
Mk2idow6TDMtW2B8Ii8p9tZryFNOLEBx84/SVWQd4YJJYJ+ONbrnAicPQKekGGnL
isVUVlG0QPaS1ttcqe/j7hw5YohmdDqCR5+tB9wLyuvn+KrZcUTsdYQ79P+eovSq
89f2SdHa2GrxqzTqYL4cATjN07ltsQFpooqMD1WyYLLEjxGUh05+YXpP7aNBloGT
dCmXO4OY8mJXDEx8ijcC45IoRLzapL1GUheeMD1fX9SdB2SVSuttujS8KSnv6LOK
X5R6iwwvG39z6AUJA/Y4dWOTUfm/3KeSEAifEYVH
-----END CERTIFICATE-----
